; Function Attrs: mustprogress nofree norecurse nosync nounwind null_pointer_is_valid sspstrong willreturn memory(argmem: read) uwtable
define internal nonnull ptr @ip_endpoint_get_filter_type(ptr noundef readonly captures(none) %0, i32 noundef %1) #6 {
  %3 = icmp eq i32 %1, 2
  br i1 %3, label %4, label %8

4:                                                ; preds = %2
  %5 = getelementptr inbounds nuw i8, ptr %0, i64 8
  %6 = load i32, ptr %5, align 8
  %switch.selectcmp.case1 = icmp eq i32 %6, 2
  %switch.selectcmp.case2 = icmp eq i32 %6, 7
  %switch.selectcmp = or i1 %switch.selectcmp.case1, %switch.selectcmp.case2
  %7 = select i1 %switch.selectcmp, ptr @.str.80, ptr @.str.554
  br label %8

8:                                                ; preds = %2, %4
  %.0 = phi ptr [ %7, %4 ], [ @.str.554, %2 ]
  ret ptr %.0
}